; Function Attrs: nounwind uwtable
define internal void @user_shutdown_function_dtor(ptr nocapture noundef readonly %0) #0 {
  %2 = load ptr, ptr %0, align 8
  tail call void @zend_fcall_info_args_clear(ptr noundef %2, i1 noundef zeroext true) #18
  %3 = getelementptr inbounds i8, ptr %2, i64 8
  tail call void @zval_ptr_dtor(ptr noundef nonnull %3) #18
  %4 = getelementptr inbounds i8, ptr %2, i64 88
  %5 = load ptr, ptr %4, align 8
  %.not.i = icmp eq ptr %5, null
  br i1 %.not.i, label %fci_release.exit, label %6

6:                                                ; preds = %1
  %7 = load i32, ptr %5, align 4
  %8 = icmp ne i32 %7, 0
  tail call void @llvm.assume(i1 %8)
  %9 = add i32 %7, -1
  store i32 %9, ptr %5, align 4
  %10 = icmp eq i32 %9, 0
  br i1 %10, label %11, label %12

11:                                               ; preds = %6
  tail call void @zend_objects_store_del(ptr noundef nonnull %5) #18
  br label %fci_release.exit

12:                                               ; preds = %6
  %13 = getelementptr inbounds i8, ptr %5, i64 4
  %14 = load i32, ptr %13, align 4
  %15 = and i32 %14, -1008
  %16 = icmp eq i32 %15, 0
  br i1 %16, label %17, label %fci_release.exit

17:                                               ; preds = %12
  tail call void @gc_possible_root(ptr noundef nonnull %5) #18
  br label %fci_release.exit

fci_release.exit:                                 ; preds = %1, %11, %12, %17
  tail call void @_efree(ptr noundef nonnull %2) #18
  ret void
}